; Function Attrs: mustprogress nofree norecurse nosync nounwind willreturn memory(write, argmem: readwrite, inaccessiblemem: none) uwtable
define void @_ZN7testing8internal12UnitTestImpl32SuppressTestEventsIfInSubprocessEv(ptr nocapture noundef nonnull readonly align 8 dereferenceable(497) %this) local_unnamed_addr #28 align 2 {
entry:
  %internal_run_death_test_flag_ = getelementptr inbounds i8, ptr %this, i64 464
  %0 = load ptr, ptr %internal_run_death_test_flag_, align 8
  %cmp.not = icmp eq ptr %0, null
  br i1 %cmp.not, label %if.end, label %if.then

if.then:                                          ; preds = %entry
  %listeners_.i = getelementptr inbounds i8, ptr %this, i64 400
  %1 = load ptr, ptr %listeners_.i, align 8
  %forwarding_enabled_.i.i = getelementptr inbounds i8, ptr %1, i64 8
  store i8 0, ptr %forwarding_enabled_.i.i, align 8
  br label %if.end

if.end:                                           ; preds = %if.then, %entry
  ret void
}